target datalayout = "e-m:e-p270:32:32-p271:32:32-p272:64:64-i64:64-f80:128-n8:16:32:64-S128"
target triple = "x86_64-pc-linux-gnu"

@.str = private unnamed_addr constant [3 x i8] c"%d\00", align 1
@.str.1 = private unnamed_addr constant [5 x i8] c"%d%c\00", align 1

; Function Attrs: noinline nounwind uwtable
define dso_local void @bubble(i32* %0, i32 %1) #0 {
  %3 = alloca i32*, align 8
  %4 = alloca i32, align 4
  %5 = alloca i32, align 4
  %6 = alloca i32, align 4
  %7 = alloca i32, align 4
  store i32* %0, i32** %3, align 8
  store i32 %1, i32* %4, align 4
  store i32 0, i32* %5, align 4
  store i32 1, i32* %6, align 4
  br label %8

8:                                                ; preds = %41, %2
  %9 = load i32, i32* %6, align 4
  %10 = load i32, i32* %4, align 4
  %11 = icmp sle i32 %9, %10
  br i1 %11, label %12, label %44

12:                                               ; preds = %8
  store i32 0, i32* %5, align 4
  br label %13

13:                                               ; preds = %37, %12
  %14 = load i32, i32* %5, align 4
  %15 = load i32, i32* %4, align 4
  %16 = load i32, i32* %6, align 4
  %17 = sub nsw i32 %15, %16
  %18 = icmp slt i32 %14, %17
  br i1 %18, label %19, label %40

19:                                               ; preds = %13
  %20 = load i32*, i32** %3, align 8
  %21 = load i32, i32* %20, align 4
  %22 = load i32*, i32** %3, align 8
  %23 = getelementptr inbounds i32, i32* %22, i64 1
  %24 = load i32, i32* %23, align 4
  %25 = icmp sgt i32 %21, %24
  br i1 %25, label %26, label %36

26:                                               ; preds = %19
  %27 = load i32*, i32** %3, align 8
  %28 = load i32, i32* %27, align 4
  store i32 %28, i32* %7, align 4
  %29 = load i32*, i32** %3, align 8
  %30 = getelementptr inbounds i32, i32* %29, i64 1
  %31 = load i32, i32* %30, align 4
  %32 = load i32*, i32** %3, align 8
  store i32 %31, i32* %32, align 4
  %33 = load i32, i32* %7, align 4
  %34 = load i32*, i32** %3, align 8
  %35 = getelementptr inbounds i32, i32* %34, i64 1
  store i32 %33, i32* %35, align 4
  br label %36

36:                                               ; preds = %26, %19
  br label %37

37:                                               ; preds = %36
  %38 = load i32, i32* %5, align 4
  %39 = add nsw i32 %38, 1
  store i32 %39, i32* %5, align 4
  br label %13

40:                                               ; preds = %13
  br label %41

41:                                               ; preds = %40
  %42 = load i32, i32* %6, align 4
  %43 = add nsw i32 %42, 1
  store i32 %43, i32* %6, align 4
  br label %8

44:                                               ; preds = %8
  ret void
}

; Function Attrs: noinline nounwind uwtable
define dso_local float @ffabs(float %0) #0 {
  %2 = alloca float, align 4
  %3 = alloca float, align 4
  store float %0, float* %3, align 4
  %4 = load float, float* %3, align 4
  %5 = fcmp ogt float %4, 0.000000e+00
  br i1 %5, label %6, label %8

6:                                                ; preds = %1
  %7 = load float, float* %3, align 4
  store float %7, float* %2, align 4
  br label %11

8:                                                ; preds = %1
  %9 = load float, float* %3, align 4
  %10 = fneg float %9
  store float %10, float* %2, align 4
  br label %11

11:                                               ; preds = %8, %6
  %12 = load float, float* %2, align 4
  ret float %12
}

; Function Attrs: noinline nounwind uwtable
define dso_local void @main() #0 {
  %1 = alloca i32, align 4
  %2 = alloca i32, align 4
  %3 = alloca i32*, align 8
  %4 = alloca i32, align 4
  %5 = alloca i32*, align 8
  %6 = alloca i32, align 4
  %7 = alloca float, align 4
  %8 = alloca float, align 4
  store i32 0, i32* %4, align 4
  store i32 0, i32* %6, align 4
  store float 0.000000e+00, float* %8, align 4
  %9 = call i32 (i8*, ...) @__isoc99_scanf(i8* getelementptr inbounds ([3 x i8], [3 x i8]* @.str, i64 0, i64 0), i32* %1)
  %10 = load i32, i32* %1, align 4
  %11 = sext i32 %10 to i64
  %12 = mul i64 %11, 4
  %13 = call noalias i8* @malloc(i64 %12) #3
  %14 = bitcast i8* %13 to i32*
  store i32* %14, i32** %3, align 8
  %15 = load i32, i32* %1, align 4
  %16 = sext i32 %15 to i64
  %17 = mul i64 %16, 4
  %18 = call noalias i8* @malloc(i64 %17) #3
  %19 = bitcast i8* %18 to i32*
  store i32* %19, i32** %5, align 8
  store i32 0, i32* %2, align 4
  br label %20

20:                                               ; preds = %37, %0
  %21 = load i32, i32* %2, align 4
  %22 = load i32, i32* %1, align 4
  %23 = icmp slt i32 %21, %22
  br i1 %23, label %24, label %40

24:                                               ; preds = %20
  %25 = load i32*, i32** %3, align 8
  %26 = load i32, i32* %2, align 4
  %27 = sext i32 %26 to i64
  %28 = getelementptr inbounds i32, i32* %25, i64 %27
  %29 = call i32 (i8*, ...) @__isoc99_scanf(i8* getelementptr inbounds ([3 x i8], [3 x i8]* @.str, i64 0, i64 0), i32* %28)
  %30 = load i32*, i32** %3, align 8
  %31 = load i32, i32* %2, align 4
  %32 = sext i32 %31 to i64
  %33 = getelementptr inbounds i32, i32* %30, i64 %32
  %34 = load i32, i32* %33, align 4
  %35 = load i32, i32* %4, align 4
  %36 = add nsw i32 %35, %34
  store i32 %36, i32* %4, align 4
  br label %37

37:                                               ; preds = %24
  %38 = load i32, i32* %2, align 4
  %39 = add nsw i32 %38, 1
  store i32 %39, i32* %2, align 4
  br label %20

40:                                               ; preds = %20
  %41 = load i32, i32* %4, align 4
  %42 = sitofp i32 %41 to float
  %43 = load i32, i32* %1, align 4
  %44 = sitofp i32 %43 to float
  %45 = fdiv float %42, %44
  store float %45, float* %7, align 4
  store i32 0, i32* %2, align 4
  br label %46

46:                                               ; preds = %73, %40
  %47 = load i32, i32* %2, align 4
  %48 = load i32, i32* %1, align 4
  %49 = icmp slt i32 %47, %48
  br i1 %49, label %50, label %76

50:                                               ; preds = %46
  %51 = load i32*, i32** %3, align 8
  %52 = load i32, i32* %2, align 4
  %53 = sext i32 %52 to i64
  %54 = getelementptr inbounds i32, i32* %51, i64 %53
  %55 = load i32, i32* %54, align 4
  %56 = sitofp i32 %55 to float
  %57 = load float, float* %7, align 4
  %58 = fsub float %56, %57
  %59 = call float @ffabs(float %58)
  %60 = load float, float* %8, align 4
  %61 = fcmp oge float %59, %60
  br i1 %61, label %62, label %72

62:                                               ; preds = %50
  %63 = load i32*, i32** %3, align 8
  %64 = load i32, i32* %2, align 4
  %65 = sext i32 %64 to i64
  %66 = getelementptr inbounds i32, i32* %63, i64 %65
  %67 = load i32, i32* %66, align 4
  %68 = sitofp i32 %67 to float
  %69 = load float, float* %7, align 4
  %70 = fsub float %68, %69
  %71 = call float @ffabs(float %70)
  store float %71, float* %8, align 4
  br label %72

72:                                               ; preds = %62, %50
  br label %73

73:                                               ; preds = %72
  %74 = load i32, i32* %2, align 4
  %75 = add nsw i32 %74, 1
  store i32 %75, i32* %2, align 4
  br label %46

76:                                               ; preds = %46
  store i32 0, i32* %2, align 4
  br label %77

77:                                               ; preds = %109, %76
  %78 = load i32, i32* %2, align 4
  %79 = load i32, i32* %1, align 4
  %80 = icmp slt i32 %78, %79
  br i1 %80, label %81, label %112

81:                                               ; preds = %77
  %82 = load i32*, i32** %3, align 8
  %83 = load i32, i32* %2, align 4
  %84 = sext i32 %83 to i64
  %85 = getelementptr inbounds i32, i32* %82, i64 %84
  %86 = load i32, i32* %85, align 4
  %87 = sitofp i32 %86 to float
  %88 = load float, float* %7, align 4
  %89 = fsub float %87, %88
  %90 = call float @ffabs(float %89)
  %91 = load float, float* %8, align 4
  %92 = fsub float %90, %91
  %93 = call float @ffabs(float %92)
  %94 = fpext float %93 to double
  %95 = fcmp olt double %94, 0x3E7AD7F29ABCAF48
  br i1 %95, label %96, label %108

96:                                               ; preds = %81
  %97 = load i32*, i32** %3, align 8
  %98 = load i32, i32* %2, align 4
  %99 = sext i32 %98 to i64
  %100 = getelementptr inbounds i32, i32* %97, i64 %99
  %101 = load i32, i32* %100, align 4
  %102 = load i32*, i32** %5, align 8
  %103 = load i32, i32* %6, align 4
  %104 = sext i32 %103 to i64
  %105 = getelementptr inbounds i32, i32* %102, i64 %104
  store i32 %101, i32* %105, align 4
  %106 = load i32, i32* %6, align 4
  %107 = add nsw i32 %106, 1
  store i32 %107, i32* %6, align 4
  br label %108

108:                                              ; preds = %96, %81
  br label %109

109:                                              ; preds = %108
  %110 = load i32, i32* %2, align 4
  %111 = add nsw i32 %110, 1
  store i32 %111, i32* %2, align 4
  br label %77

112:                                              ; preds = %77
  %113 = load i32, i32* %6, align 4
  %114 = icmp eq i32 %113, 1
  br i1 %114, label %115, label %120

115:                                              ; preds = %112
  %116 = load i32*, i32** %5, align 8
  %117 = getelementptr inbounds i32, i32* %116, i64 0
  %118 = load i32, i32* %117, align 4
  %119 = call i32 (i8*, ...) @printf(i8* getelementptr inbounds ([3 x i8], [3 x i8]* @.str, i64 0, i64 0), i32 %118)
  br label %144

120:                                              ; preds = %112
  %121 = load i32*, i32** %5, align 8
  %122 = load i32, i32* %6, align 4
  call void @bubble(i32* %121, i32 %122)
  store i32 0, i32* %2, align 4
  br label %123

123:                                              ; preds = %140, %120
  %124 = load i32, i32* %2, align 4
  %125 = load i32, i32* %6, align 4
  %126 = icmp slt i32 %124, %125
  br i1 %126, label %127, label %143

127:                                              ; preds = %123
  %128 = load i32*, i32** %5, align 8
  %129 = load i32, i32* %2, align 4
  %130 = sext i32 %129 to i64
  %131 = getelementptr inbounds i32, i32* %128, i64 %130
  %132 = load i32, i32* %131, align 4
  %133 = load i32, i32* %2, align 4
  %134 = load i32, i32* %6, align 4
  %135 = sub nsw i32 %134, 1
  %136 = icmp ne i32 %133, %135
  %137 = zext i1 %136 to i64
  %138 = select i1 %136, i32 44, i32 10
  %139 = call i32 (i8*, ...) @printf(i8* getelementptr inbounds ([5 x i8], [5 x i8]* @.str.1, i64 0, i64 0), i32 %132, i32 %138)
  br label %140

140:                                              ; preds = %127
  %141 = load i32, i32* %2, align 4
  %142 = add nsw i32 %141, 1
  store i32 %142, i32* %2, align 4
  br label %123

143:                                              ; preds = %123
  br label %144

144:                                              ; preds = %143, %115
  ret void
}